target datalayout = "e-m:e-p270:32:32-p271:32:32-p272:64:64-i64:64-i128:128-f80:128-n8:16:32:64-S128"
target triple = "x86_64-pc-linux-gnu"

%union.ieee_802_11_phy_info = type { %struct.ieee_802_11be }
%struct.ieee_802_11be = type { i8, i8, i8, i8, [4 x %struct.ieee_802_11be_user_info] }
%struct.ieee_802_11be_user_info = type { i32 }
%struct.ieee_802_11_phdr = type { i32, i8, i32, %union.ieee_802_11_phy_info, i16, i16, i32, i16, i8, i8, i8, i8, i8, i8, i64, i32, i32, i8 }

@ieee80211_noqos_handle = internal global ptr null, align 8

; Function Attrs: null_pointer_is_valid sspstrong uwtable
define internal i32 @dissect_wlan_noqos_radio(ptr noundef %0, ptr noundef %1, ptr noundef %2, ptr noundef %3) #1 {
  %5 = alloca i32, align 4
  %6 = alloca ptr, align 8
  %7 = alloca ptr, align 8
  %8 = alloca ptr, align 8
  %9 = alloca ptr, align 8
  %10 = alloca ptr, align 8
  %11 = alloca i32, align 4
  store ptr %0, ptr %6, align 8
  store ptr %1, ptr %7, align 8
  store ptr %2, ptr %8, align 8
  store ptr %3, ptr %9, align 8
  call void @llvm.lifetime.start.p0(i64 8, ptr %10) #10
  %12 = load ptr, ptr %9, align 8
  store ptr %12, ptr %10, align 8
  %13 = load ptr, ptr %6, align 8
  %14 = load ptr, ptr %7, align 8
  %15 = load ptr, ptr %8, align 8
  %16 = load ptr, ptr %10, align 8
  call void @dissect_wlan_radio_phdr(ptr noundef %13, ptr noundef %14, ptr noundef %15, ptr noundef %16)
  %17 = load ptr, ptr %10, align 8
  %18 = getelementptr inbounds nuw %struct.ieee_802_11_phdr, ptr %17, i32 0, i32 4
  %19 = load i16, ptr %18, align 8
  %20 = lshr i16 %19, 11
  %21 = and i16 %20, 1
  %22 = zext i16 %21 to i32
  %23 = icmp ne i32 %22, 0
  br i1 %23, label %24, label %27

24:                                               ; preds = %4
  %25 = load ptr, ptr %6, align 8
  %26 = call i32 @tvb_captured_length(ptr noundef %25)
  store i32 %26, ptr %5, align 4
  store i32 1, ptr %11, align 4
  br label %34

27:                                               ; preds = %4
  %28 = load ptr, ptr @ieee80211_noqos_handle, align 8
  %29 = load ptr, ptr %6, align 8
  %30 = load ptr, ptr %7, align 8
  %31 = load ptr, ptr %8, align 8
  %32 = load ptr, ptr %9, align 8
  %33 = call i32 @call_dissector_with_data(ptr noundef %28, ptr noundef %29, ptr noundef %30, ptr noundef %31, ptr noundef %32)
  store i32 %33, ptr %5, align 4
  store i32 1, ptr %11, align 4
  br label %34

34:                                               ; preds = %27, %24
  call void @llvm.lifetime.end.p0(i64 8, ptr %10) #10
  %35 = load i32, ptr %5, align 4
  ret i32 %35
}