; Function Attrs: null_pointer_is_valid sspstrong uwtable
define internal i32 @dissect_wlan_noqos_radio(ptr noundef %0, ptr noundef %1, ptr noundef %2, ptr noundef %3) #1 {
  tail call fastcc void @dissect_wlan_radio_phdr(ptr noundef %0, ptr noundef %1, ptr noundef %2, ptr noundef %3)
  %5 = getelementptr inbounds nuw i8, ptr %3, i64 32
  %6 = load i16, ptr %5, align 8
  %7 = and i16 %6, 2048
  %.not = icmp eq i16 %7, 0
  br i1 %.not, label %10, label %8

8:                                                ; preds = %4
  %9 = tail call i32 @tvb_captured_length(ptr noundef %0)
  br label %13

10:                                               ; preds = %4
  %11 = load ptr, ptr @ieee80211_noqos_handle, align 8
  %12 = tail call i32 @call_dissector_with_data(ptr noundef %11, ptr noundef %0, ptr noundef %1, ptr noundef %2, ptr noundef %3)
  br label %13

13:                                               ; preds = %10, %8
  %.0 = phi i32 [ %9, %8 ], [ %12, %10 ]
  ret i32 %.0
}